; Function Attrs: nounwind uwtable
define internal range(i32 -2147483648, 1) i32 @process_command(ptr noundef %0, ptr noundef %1, ptr noundef %2, ptr noundef %3, i32 noundef %4, i32 noundef %5) #1 {
  %7 = getelementptr inbounds nuw i8, ptr %0, i64 72
  %8 = load ptr, ptr %7, align 8, !tbaa !4
  %9 = tail call i32 @ff_filter_process_command(ptr noundef %0, ptr noundef %1, ptr noundef %2, ptr noundef %3, i32 noundef %4, i32 noundef %5) #10
  %10 = icmp slt i32 %9, 0
  br i1 %10, label %18, label %11

11:                                               ; preds = %6
  %12 = tail call i32 @init(ptr noundef nonnull %0) #11
  %13 = icmp slt i32 %12, 0
  br i1 %13, label %18, label %14

14:                                               ; preds = %11
  %15 = getelementptr inbounds nuw i8, ptr %8, i64 48
  %16 = getelementptr inbounds nuw i8, ptr %8, i64 176
  %17 = getelementptr inbounds nuw i8, ptr %8, i64 20
  tail call void @ff_draw_color(ptr noundef nonnull %15, ptr noundef nonnull %16, ptr noundef nonnull %17) #10
  br label %18

18:                                               ; preds = %11, %6, %14
  %.0 = phi i32 [ 0, %14 ], [ %9, %6 ], [ %12, %11 ]
  ret i32 %.0
}